target datalayout = "e-m:e-p270:32:32-p271:32:32-p272:64:64-i64:64-i128:128-f80:128-n8:16:32:64-S128"
target triple = "x86_64-pc-linux-gnu"

%struct.gistxlogPageUpdate = type { i16, i16 }
%struct.IndexTupleData = type { %struct.ItemPointerData, i16 }
%struct.ItemPointerData = type { %struct.BlockIdData, i16 }
%struct.BlockIdData = type { i16, i16 }

; Function Attrs: inlinehint nounwind uwtable
define internal zeroext i1 @BufferIsValid(i32 noundef %0) #2 {
  %2 = alloca i32, align 4
  store i32 %0, ptr %2, align 4
  %3 = load i32, ptr %2, align 4
  %4 = icmp ne i32 %3, 0
  ret i1 %4
}

; Function Attrs: inlinehint nounwind uwtable
define internal i64 @IndexTupleSize(ptr noundef %0) #2 {
  %2 = alloca ptr, align 8
  store ptr %0, ptr %2, align 8
  %3 = load ptr, ptr %2, align 8
  %4 = getelementptr inbounds nuw %struct.IndexTupleData, ptr %3, i32 0, i32 1
  %5 = load i16, ptr %4, align 2
  %6 = zext i16 %5 to i32
  %7 = and i32 %6, 8191
  %8 = sext i32 %7 to i64
  ret i64 %8
}

; Function Attrs: nounwind uwtable
define dso_local i64 @gistXLogUpdate(i32 noundef %0, ptr noundef %1, i32 noundef %2, ptr noundef %3, i32 noundef %4, i32 noundef %5) #0 {
  %7 = alloca i32, align 4
  %8 = alloca ptr, align 8
  %9 = alloca i32, align 4
  %10 = alloca ptr, align 8
  %11 = alloca i32, align 4
  %12 = alloca i32, align 4
  %13 = alloca %struct.gistxlogPageUpdate, align 2
  %14 = alloca i32, align 4
  %15 = alloca i64, align 8
  store i32 %0, ptr %7, align 4
  store ptr %1, ptr %8, align 8
  store i32 %2, ptr %9, align 4
  store ptr %3, ptr %10, align 8
  store i32 %4, ptr %11, align 4
  store i32 %5, ptr %12, align 4
  call void @llvm.lifetime.start.p0(i64 4, ptr %13) #6
  call void @llvm.lifetime.start.p0(i64 4, ptr %14) #6
  call void @llvm.lifetime.start.p0(i64 8, ptr %15) #6
  %16 = load i32, ptr %9, align 4
  %17 = trunc i32 %16 to i16
  %18 = getelementptr inbounds nuw %struct.gistxlogPageUpdate, ptr %13, i32 0, i32 0
  store i16 %17, ptr %18, align 2
  %19 = load i32, ptr %11, align 4
  %20 = trunc i32 %19 to i16
  %21 = getelementptr inbounds nuw %struct.gistxlogPageUpdate, ptr %13, i32 0, i32 1
  store i16 %20, ptr %21, align 2
  call void @XLogBeginInsert()
  call void @XLogRegisterData(ptr noundef %13, i32 noundef 4)
  %22 = load i32, ptr %7, align 4
  call void @XLogRegisterBuffer(i8 noundef zeroext 0, i32 noundef %22, i8 noundef zeroext 8)
  %23 = load ptr, ptr %8, align 8
  %24 = load i32, ptr %9, align 4
  %25 = sext i32 %24 to i64
  %26 = mul i64 2, %25
  %27 = trunc i64 %26 to i32
  call void @XLogRegisterBufData(i8 noundef zeroext 0, ptr noundef %23, i32 noundef %27)
  store i32 0, ptr %14, align 4
  br label %28

28:                                               ; preds = %45, %6
  %29 = load i32, ptr %14, align 4
  %30 = load i32, ptr %11, align 4
  %31 = icmp slt i32 %29, %30
  br i1 %31, label %32, label %48

32:                                               ; preds = %28
  %33 = load ptr, ptr %10, align 8
  %34 = load i32, ptr %14, align 4
  %35 = sext i32 %34 to i64
  %36 = getelementptr inbounds ptr, ptr %33, i64 %35
  %37 = load ptr, ptr %36, align 8
  %38 = load ptr, ptr %10, align 8
  %39 = load i32, ptr %14, align 4
  %40 = sext i32 %39 to i64
  %41 = getelementptr inbounds ptr, ptr %38, i64 %40
  %42 = load ptr, ptr %41, align 8
  %43 = call i64 @IndexTupleSize(ptr noundef %42)
  %44 = trunc i64 %43 to i32
  call void @XLogRegisterBufData(i8 noundef zeroext 0, ptr noundef %37, i32 noundef %44)
  br label %45

45:                                               ; preds = %32
  %46 = load i32, ptr %14, align 4
  %47 = add i32 %46, 1
  store i32 %47, ptr %14, align 4
  br label %28, !llvm.loop !11

48:                                               ; preds = %28
  %49 = load i32, ptr %12, align 4
  %50 = call zeroext i1 @BufferIsValid(i32 noundef %49)
  br i1 %50, label %51, label %53

51:                                               ; preds = %48
  %52 = load i32, ptr %12, align 4
  call void @XLogRegisterBuffer(i8 noundef zeroext 1, i32 noundef %52, i8 noundef zeroext 8)
  br label %53

53:                                               ; preds = %51, %48
  %54 = call i64 @XLogInsert(i8 noundef zeroext 14, i8 noundef zeroext 0)
  store i64 %54, ptr %15, align 8
  %55 = load i64, ptr %15, align 8
  call void @llvm.lifetime.end.p0(i64 8, ptr %15) #6
  call void @llvm.lifetime.end.p0(i64 4, ptr %14) #6
  call void @llvm.lifetime.end.p0(i64 4, ptr %13) #6
  ret i64 %55
}