; Function Attrs: nounwind uwtable
define dso_local i64 @gistXLogUpdate(i32 noundef %0, ptr noundef %1, i32 noundef %2, ptr noundef readonly captures(none) %3, i32 noundef %4, i32 noundef %5) local_unnamed_addr #0 {
  %7 = alloca %struct.gistxlogPageUpdate, align 2
  call void @llvm.lifetime.start.p0(i64 4, ptr nonnull %7) #6
  %8 = trunc i32 %2 to i16
  store i16 %8, ptr %7, align 2
  %9 = trunc i32 %4 to i16
  %10 = getelementptr inbounds nuw i8, ptr %7, i64 2
  store i16 %9, ptr %10, align 2
  tail call void @XLogBeginInsert() #6
  call void @XLogRegisterData(ptr noundef nonnull %7, i32 noundef 4) #6
  call void @XLogRegisterBuffer(i8 noundef zeroext 0, i32 noundef %0, i8 noundef zeroext 8) #6
  %11 = shl i32 %2, 1
  call void @XLogRegisterBufData(i8 noundef zeroext 0, ptr noundef %1, i32 noundef %11) #6
  %12 = icmp sgt i32 %4, 0
  br i1 %12, label %.lr.ph.preheader, label %._crit_edge

.lr.ph.preheader:                                 ; preds = %6
  %wide.trip.count = zext nneg i32 %4 to i64
  br label %.lr.ph

.lr.ph:                                           ; preds = %.lr.ph.preheader, %.lr.ph
  %indvars.iv = phi i64 [ 0, %.lr.ph.preheader ], [ %indvars.iv.next, %.lr.ph ]
  %13 = getelementptr inbounds nuw ptr, ptr %3, i64 %indvars.iv
  %14 = load ptr, ptr %13, align 8
  %15 = getelementptr i8, ptr %14, i64 6
  %.val = load i16, ptr %15, align 2
  %16 = and i16 %.val, 8191
  %17 = zext nneg i16 %16 to i32
  call void @XLogRegisterBufData(i8 noundef zeroext 0, ptr noundef %14, i32 noundef %17) #6
  %indvars.iv.next = add nuw nsw i64 %indvars.iv, 1
  %exitcond.not = icmp eq i64 %indvars.iv.next, %wide.trip.count
  br i1 %exitcond.not, label %._crit_edge, label %.lr.ph, !llvm.loop !12

._crit_edge:                                      ; preds = %.lr.ph, %6
  %.not = icmp eq i32 %5, 0
  br i1 %.not, label %19, label %18

18:                                               ; preds = %._crit_edge
  call void @XLogRegisterBuffer(i8 noundef zeroext 1, i32 noundef %5, i8 noundef zeroext 8) #6
  br label %19

19:                                               ; preds = %18, %._crit_edge
  %20 = call i64 @XLogInsert(i8 noundef zeroext 14, i8 noundef zeroext 0) #6
  call void @llvm.lifetime.end.p0(i64 4, ptr nonnull %7) #6
  ret i64 %20
}